; Function Attrs: nounwind uwtable
define ptr @l_Lean_Elab_elabSetOption___rarg(ptr noundef %0, ptr noundef %1, ptr noundef %2, ptr noundef %3, ptr noundef %4, ptr noundef %5, ptr noundef %6) #0 {
  %8 = getelementptr inbounds nuw i8, ptr %0, i64 16
  %9 = load ptr, ptr %8, align 8, !tbaa !4
  %10 = ptrtoint ptr %9 to i64
  %11 = and i64 %10, 1
  %.not = icmp eq i64 %11, 0
  br i1 %.not, label %12, label %lean_inc.exit30

12:                                               ; preds = %7
  %.val.i = load i32, ptr %9, align 4, !tbaa !8
  %13 = icmp sgt i32 %.val.i, 0
  br i1 %13, label %14, label %16, !prof !11

14:                                               ; preds = %12
  %15 = add nuw i32 %.val.i, 1
  store i32 %15, ptr %9, align 4, !tbaa !8
  br label %lean_inc.exit30

16:                                               ; preds = %12
  %.not.i31 = icmp eq i32 %.val.i, 0
  br i1 %.not.i31, label %lean_inc.exit30, label %17

17:                                               ; preds = %16
  tail call void @lean_inc_ref_cold(ptr noundef nonnull %9) #4
  br label %lean_inc.exit30

lean_inc.exit30:                                  ; preds = %17, %16, %14, %7
  %18 = getelementptr inbounds nuw i8, ptr %2, i64 16
  %19 = load ptr, ptr %18, align 8, !tbaa !4
  %20 = ptrtoint ptr %19 to i64
  %21 = and i64 %20, 1
  %.not41 = icmp eq i64 %21, 0
  br i1 %.not41, label %22, label %lean_inc.exit29

22:                                               ; preds = %lean_inc.exit30
  %.val.i32 = load i32, ptr %19, align 4, !tbaa !8
  %23 = icmp sgt i32 %.val.i32, 0
  br i1 %23, label %24, label %26, !prof !11

24:                                               ; preds = %22
  %25 = add nuw i32 %.val.i32, 1
  store i32 %25, ptr %19, align 4, !tbaa !8
  br label %lean_inc.exit29

26:                                               ; preds = %22
  %.not.i33 = icmp eq i32 %.val.i32, 0
  br i1 %.not.i33, label %lean_inc.exit29, label %27

27:                                               ; preds = %26
  tail call void @lean_inc_ref_cold(ptr noundef nonnull %19) #4
  br label %lean_inc.exit29

lean_inc.exit29:                                  ; preds = %27, %26, %24, %lean_inc.exit30
  %28 = getelementptr inbounds nuw i8, ptr %19, i64 8
  %29 = load ptr, ptr %28, align 8, !tbaa !4
  %30 = ptrtoint ptr %29 to i64
  %31 = and i64 %30, 1
  %.not42 = icmp eq i64 %31, 0
  br i1 %.not42, label %32, label %lean_inc.exit28

32:                                               ; preds = %lean_inc.exit29
  %.val.i35 = load i32, ptr %29, align 4, !tbaa !8
  %33 = icmp sgt i32 %.val.i35, 0
  br i1 %33, label %34, label %36, !prof !11

34:                                               ; preds = %32
  %35 = add nuw i32 %.val.i35, 1
  store i32 %35, ptr %29, align 4, !tbaa !8
  br label %lean_inc.exit28

36:                                               ; preds = %32
  %.not.i36 = icmp eq i32 %.val.i35, 0
  br i1 %.not.i36, label %lean_inc.exit28, label %37

37:                                               ; preds = %36
  tail call void @lean_inc_ref_cold(ptr noundef nonnull %29) #4
  br label %lean_inc.exit28

lean_inc.exit28:                                  ; preds = %37, %36, %34, %lean_inc.exit29
  br i1 %.not41, label %38, label %lean_dec.exit

38:                                               ; preds = %lean_inc.exit28
  %39 = load i32, ptr %19, align 4, !tbaa !8
  %40 = icmp sgt i32 %39, 1
  br i1 %40, label %41, label %43, !prof !11

41:                                               ; preds = %38
  %42 = add nsw i32 %39, -1
  store i32 %42, ptr %19, align 4, !tbaa !8
  br label %lean_dec.exit

43:                                               ; preds = %38
  %.not.i = icmp eq i32 %39, 0
  br i1 %.not.i, label %lean_dec.exit, label %44

44:                                               ; preds = %43
  tail call void @lean_dec_ref_cold(ptr noundef nonnull %19) #4
  br label %lean_dec.exit

lean_dec.exit:                                    ; preds = %44, %43, %41, %lean_inc.exit28
  br i1 %.not, label %45, label %lean_inc.exit

45:                                               ; preds = %lean_dec.exit
  %.val.i38 = load i32, ptr %9, align 4, !tbaa !8
  %46 = icmp sgt i32 %.val.i38, 0
  br i1 %46, label %47, label %49, !prof !11

47:                                               ; preds = %45
  %48 = add nuw i32 %.val.i38, 1
  store i32 %48, ptr %9, align 4, !tbaa !8
  br label %lean_inc.exit

49:                                               ; preds = %45
  %.not.i39 = icmp eq i32 %.val.i38, 0
  br i1 %.not.i39, label %lean_inc.exit, label %50

50:                                               ; preds = %49
  tail call void @lean_inc_ref_cold(ptr noundef nonnull %9) #4
  br label %lean_inc.exit

lean_inc.exit:                                    ; preds = %50, %49, %47, %lean_dec.exit
  tail call void @lean_inc_heartbeat() #4
  %51 = tail call noalias ptr @mi_malloc_small(i64 noundef 88) #4
  %52 = icmp eq ptr %51, null
  br i1 %52, label %53, label %lean_alloc_closure.exit

53:                                               ; preds = %lean_inc.exit
  tail call void @lean_internal_panic_out_of_memory() #5
  unreachable

lean_alloc_closure.exit:                          ; preds = %lean_inc.exit
  %54 = getelementptr inbounds nuw i8, ptr %51, i64 4
  store i32 1, ptr %51, align 4, !tbaa !8
  store i32 -184549288, ptr %54, align 4
  %55 = getelementptr inbounds nuw i8, ptr %51, i64 8
  store ptr @l_Lean_Elab_elabSetOption___rarg___lambda__5, ptr %55, align 8, !tbaa !4
  %56 = getelementptr inbounds nuw i8, ptr %51, i64 16
  store i16 9, ptr %56, align 8, !tbaa !12
  %57 = getelementptr inbounds nuw i8, ptr %51, i64 18
  store i16 8, ptr %57, align 2, !tbaa !12
  %58 = getelementptr inbounds nuw i8, ptr %51, i64 24
  store ptr %0, ptr %58, align 8, !tbaa !4
  %59 = getelementptr inbounds nuw i8, ptr %51, i64 32
  store ptr %4, ptr %59, align 8, !tbaa !4
  %60 = getelementptr inbounds nuw i8, ptr %51, i64 40
  store ptr %5, ptr %60, align 8, !tbaa !4
  %61 = getelementptr inbounds nuw i8, ptr %51, i64 48
  store ptr %3, ptr %61, align 8, !tbaa !4
  %62 = getelementptr inbounds nuw i8, ptr %51, i64 56
  store ptr %6, ptr %62, align 8, !tbaa !4
  %63 = getelementptr inbounds nuw i8, ptr %51, i64 64
  store ptr %2, ptr %63, align 8, !tbaa !4
  %64 = getelementptr inbounds nuw i8, ptr %51, i64 72
  store ptr %1, ptr %64, align 8, !tbaa !4
  %65 = getelementptr inbounds nuw i8, ptr %51, i64 80
  store ptr %9, ptr %65, align 8, !tbaa !4
  %66 = tail call ptr @lean_apply_4(ptr noundef %9, ptr noundef nonnull inttoptr (i64 1 to ptr), ptr noundef nonnull inttoptr (i64 1 to ptr), ptr noundef %29, ptr noundef nonnull %51) #4
  ret ptr %66
}